; Function Attrs: mustprogress nofree norecurse nosync nounwind willreturn memory(read, inaccessiblemem: none) uwtable
define hidden range(i32 0, 2) i32 @_PyCompile_IsInteractiveTopLevel(ptr noundef readonly captures(none) %0) local_unnamed_addr #5 {
  %2 = getelementptr inbounds nuw i8, ptr %0, i64 72
  %3 = load ptr, ptr %2, align 8, !tbaa !10
  %4 = getelementptr i8, ptr %3, i64 16
  %.val = load i64, ptr %4, align 8, !tbaa !20
  %5 = icmp slt i64 %.val, 1
  %6 = getelementptr inbounds nuw i8, ptr %0, i64 48
  %7 = load i32, ptr %6, align 8, !tbaa !89
  %8 = icmp ne i32 %7, 0
  %9 = select i1 %8, i1 %5, i1 false
  %10 = zext i1 %9 to i32
  ret i32 %10
}